target datalayout = "e-m:e-p270:32:32-p271:32:32-p272:64:64-i64:64-i128:128-f80:128-n8:16:32:64-S128"
target triple = "x86_64-pc-linux-gnu"

%struct.ref_iterator_vtable = type { ptr, ptr, ptr }
%struct.ref_iterator = type { ptr, ptr, ptr, ptr, i32 }
%struct.merge_ref_iterator = type { %struct.ref_iterator, ptr, ptr, ptr, ptr, ptr }

@merge_ref_iterator_vtable = internal global %struct.ref_iterator_vtable { ptr @merge_ref_iterator_advance, ptr @merge_ref_iterator_peel, ptr @merge_ref_iterator_abort }, align 8

; Function Attrs: nounwind uwtable
define dso_local void @base_ref_iterator_init(ptr noundef %0, ptr noundef %1) #0 {
  %3 = alloca ptr, align 8
  %4 = alloca ptr, align 8
  store ptr %0, ptr %3, align 8, !tbaa !4
  store ptr %1, ptr %4, align 8, !tbaa !20
  %5 = load ptr, ptr %4, align 8, !tbaa !20
  %6 = load ptr, ptr %3, align 8, !tbaa !4
  %7 = getelementptr inbounds nuw %struct.ref_iterator, ptr %6, i32 0, i32 0
  store ptr %5, ptr %7, align 8, !tbaa !9
  %8 = load ptr, ptr %3, align 8, !tbaa !4
  %9 = getelementptr inbounds nuw %struct.ref_iterator, ptr %8, i32 0, i32 1
  store ptr null, ptr %9, align 8, !tbaa !21
  %10 = load ptr, ptr %3, align 8, !tbaa !4
  %11 = getelementptr inbounds nuw %struct.ref_iterator, ptr %10, i32 0, i32 2
  store ptr null, ptr %11, align 8, !tbaa !22
  %12 = load ptr, ptr %3, align 8, !tbaa !4
  %13 = getelementptr inbounds nuw %struct.ref_iterator, ptr %12, i32 0, i32 3
  store ptr null, ptr %13, align 8, !tbaa !23
  %14 = load ptr, ptr %3, align 8, !tbaa !4
  %15 = getelementptr inbounds nuw %struct.ref_iterator, ptr %14, i32 0, i32 4
  store i32 0, ptr %15, align 8, !tbaa !24
  ret void
}

; Function Attrs: nounwind uwtable
define dso_local ptr @merge_ref_iterator_begin(ptr noundef %0, ptr noundef %1, ptr noundef %2, ptr noundef %3) #0 {
  %5 = alloca ptr, align 8
  %6 = alloca ptr, align 8
  %7 = alloca ptr, align 8
  %8 = alloca ptr, align 8
  %9 = alloca ptr, align 8
  %10 = alloca ptr, align 8
  store ptr %0, ptr %5, align 8, !tbaa !4
  store ptr %1, ptr %6, align 8, !tbaa !4
  store ptr %2, ptr %7, align 8, !tbaa !27
  store ptr %3, ptr %8, align 8, !tbaa !27
  call void @llvm.lifetime.start.p0(i64 8, ptr %9) #6
  %11 = call ptr @xcalloc(i64 noundef 1, i64 noundef 80)
  store ptr %11, ptr %9, align 8, !tbaa !29
  call void @llvm.lifetime.start.p0(i64 8, ptr %10) #6
  %12 = load ptr, ptr %9, align 8, !tbaa !29
  %13 = getelementptr inbounds nuw %struct.merge_ref_iterator, ptr %12, i32 0, i32 0
  store ptr %13, ptr %10, align 8, !tbaa !4
  %14 = load ptr, ptr %10, align 8, !tbaa !4
  call void @base_ref_iterator_init(ptr noundef %14, ptr noundef @merge_ref_iterator_vtable)
  %15 = load ptr, ptr %5, align 8, !tbaa !4
  %16 = load ptr, ptr %9, align 8, !tbaa !29
  %17 = getelementptr inbounds nuw %struct.merge_ref_iterator, ptr %16, i32 0, i32 1
  store ptr %15, ptr %17, align 8, !tbaa !31
  %18 = load ptr, ptr %6, align 8, !tbaa !4
  %19 = load ptr, ptr %9, align 8, !tbaa !29
  %20 = getelementptr inbounds nuw %struct.merge_ref_iterator, ptr %19, i32 0, i32 2
  store ptr %18, ptr %20, align 8, !tbaa !34
  %21 = load ptr, ptr %7, align 8, !tbaa !27
  %22 = load ptr, ptr %9, align 8, !tbaa !29
  %23 = getelementptr inbounds nuw %struct.merge_ref_iterator, ptr %22, i32 0, i32 3
  store ptr %21, ptr %23, align 8, !tbaa !35
  %24 = load ptr, ptr %8, align 8, !tbaa !27
  %25 = load ptr, ptr %9, align 8, !tbaa !29
  %26 = getelementptr inbounds nuw %struct.merge_ref_iterator, ptr %25, i32 0, i32 4
  store ptr %24, ptr %26, align 8, !tbaa !36
  %27 = load ptr, ptr %9, align 8, !tbaa !29
  %28 = getelementptr inbounds nuw %struct.merge_ref_iterator, ptr %27, i32 0, i32 5
  store ptr null, ptr %28, align 8, !tbaa !37
  %29 = load ptr, ptr %10, align 8, !tbaa !4
  call void @llvm.lifetime.end.p0(i64 8, ptr %10) #6
  call void @llvm.lifetime.end.p0(i64 8, ptr %9) #6
  ret ptr %29
}