; Function Attrs: nounwind uwtable
define dso_local noundef ptr @merge_ref_iterator_begin(ptr noundef %0, ptr noundef %1, ptr noundef %2, ptr noundef %3) local_unnamed_addr #0 {
  %5 = tail call ptr @xcalloc(i64 noundef 1, i64 noundef 80) #11
  store ptr @merge_ref_iterator_vtable, ptr %5, align 8, !tbaa !4
  %6 = getelementptr inbounds nuw i8, ptr %5, i64 8
  tail call void @llvm.memset.p0.i64(ptr noundef nonnull align 8 dereferenceable(28) %6, i8 0, i64 28, i1 false)
  %7 = getelementptr inbounds nuw i8, ptr %5, i64 40
  store ptr %0, ptr %7, align 8, !tbaa !18
  %8 = getelementptr inbounds nuw i8, ptr %5, i64 48
  store ptr %1, ptr %8, align 8, !tbaa !22
  %9 = getelementptr inbounds nuw i8, ptr %5, i64 56
  store ptr %2, ptr %9, align 8, !tbaa !23
  %10 = getelementptr inbounds nuw i8, ptr %5, i64 64
  store ptr %3, ptr %10, align 8, !tbaa !24
  %11 = getelementptr inbounds nuw i8, ptr %5, i64 72
  store ptr null, ptr %11, align 8, !tbaa !25
  ret ptr %5
}